   1               		.file	"main.c"
   2               	__SREG__ = 0x3f
   3               	__SP_H__ = 0x3e
   4               	__SP_L__ = 0x3d
   5               	__CCP__  = 0x34
   6               	__tmp_reg__ = 0
   7               	__zero_reg__ = 1
  15               	.Ltext0:
  16               	.global	LCD_Command
  18               	LCD_Command:
  19               	.LFB6:
  20               	.LM1:
  21               	.LVL0:
  22               	/* prologue: function */
  23               	/* frame size = 0 */
  24               	.LM2:
  25 0000 9BB3      		in r25,59-32
  26 0002 282F      		mov r18,r24
  27 0004 207F      		andi r18,lo8(-16)
  28 0006 9F70      		andi r25,lo8(15)
  29 0008 292B      		or r18,r25
  30 000a 2BBB      		out 59-32,r18
  31               	.LM3:
  32 000c D898      		cbi 59-32,0
  33               	.LM4:
  34 000e D99A      		sbi 59-32,1
  35               	.LBB200:
  36               	.LBB201:
  37               	.LBB202:
  38               	.LBB203:
  39               	.LM5:
  40 0010 22E0      		ldi r18,lo8(2)
  41 0012 922F      		mov r25,r18
  42               	.LVL1:
  43               	/* #APP */
  44               	 ;  83 "c:/winavr-20100110/lib/gcc/../../avr/include/util/delay_basic.h" 1
  45 0014 9A95      		1: dec r25
  46 0016 01F4      		brne 1b
  47               	 ;  0 "" 2
  48               	/* #NOAPP */
  49               	.LBE203:
  50               	.LBE202:
  51               	.LBE201:
  52               	.LBE200:
  53               	.LM6:
  54 0018 D998      		cbi 59-32,1
  55               	.LBB204:
  56               	.LBB205:
  57               	.LBB206:
  58               	.LBB207:
  59               	.LBB208:
  60               	.LBB209:
  61               	.LM7:
  62 001a E0E9      		ldi r30,lo8(400)
  63 001c F1E0      		ldi r31,hi8(400)
  64               	.LVL2:
  65               	/* #APP */
  66               	 ;  105 "c:/winavr-20100110/lib/gcc/../../avr/include/util/delay_basic.h" 1
  67 001e 3197      		1: sbiw r30,1
  68 0020 01F4      		brne 1b
  69               	 ;  0 "" 2
  70               	/* #NOAPP */
  71               	.LBE209:
  72               	.LBE208:
  73               	.LBE207:
  74               	.LBE206:
  75               	.LBE205:
  76               	.LBE204:
  77               	.LM8:
  78 0022 9BB3      		in r25,59-32
  79               	.LVL3:
  80 0024 8295      		swap r24
  81               	.LVL4:
  82 0026 807F      		andi r24,lo8(-16)
  83 0028 9F70      		andi r25,lo8(15)
  84 002a 982B      		or r25,r24
  85 002c 9BBB      		out 59-32,r25
  86               	.LM9:
  87 002e D99A      		sbi 59-32,1
  88               	.LBB210:
  89               	.LBB211:
  90               	.LBB212:
  91               	.LBB213:
  92               	.LM10:
  93               	/* #APP */
  94               	 ;  83 "c:/winavr-20100110/lib/gcc/../../avr/include/util/delay_basic.h" 1
  95 0030 2A95      		1: dec r18
  96 0032 01F4      		brne 1b
  97               	 ;  0 "" 2
  98               	.LVL5:
  99               	/* #NOAPP */
 100               	.LBE213:
 101               	.LBE212:
 102               	.LBE211:
 103               	.LBE210:
 104               	.LM11:
 105 0034 D998      		cbi 59-32,1
 106               	.LBB214:
 107               	.LBB215:
 108               	.LBB216:
 109               	.LBB217:
 110               	.LM12:
 111 0036 80EA      		ldi r24,lo8(4000)
 112 0038 9FE0      		ldi r25,hi8(4000)
 113               	.LVL6:
 114               	/* #APP */
 115               	 ;  105 "c:/winavr-20100110/lib/gcc/../../avr/include/util/delay_basic.h" 1
 116 003a 0197      		1: sbiw r24,1
 117 003c 01F4      		brne 1b
 118               	 ;  0 "" 2
 119               	/* epilogue start */
 120               	/* #NOAPP */
 121               	.LBE217:
 122               	.LBE216:
 123               	.LBE215:
 124               	.LBE214:
 125               	.LM13:
 126 003e 0895      		ret
 127               	.LFE6:
 129               	.global	LCD_Char
 131               	LCD_Char:
 132               	.LFB7:
 133               	.LM14:
 134               	.LVL7:
 135               	/* prologue: function */
 136               	/* frame size = 0 */
 137               	.LM15:
 138 0040 9BB3      		in r25,59-32
 139 0042 282F      		mov r18,r24
 140 0044 207F      		andi r18,lo8(-16)
 141 0046 9F70      		andi r25,lo8(15)
 142 0048 292B      		or r18,r25
 143 004a 2BBB      		out 59-32,r18
 144               	.LM16:
 145 004c D89A      		sbi 59-32,0
 146               	.LM17:
 147 004e D99A      		sbi 59-32,1
 148               	.LBB218:
 149               	.LBB219:
 150               	.LBB220:
 151               	.LBB221:
 152               	.LM18:
 153 0050 22E0      		ldi r18,lo8(2)
 154 0052 922F      		mov r25,r18
 155               	.LVL8:
 156               	/* #APP */
 157               	 ;  83 "c:/winavr-20100110/lib/gcc/../../avr/include/util/delay_basic.h" 1
 158 0054 9A95      		1: dec r25
 159 0056 01F4      		brne 1b
 160               	 ;  0 "" 2
 161               	/* #NOAPP */
 162               	.LBE221:
 163               	.LBE220:
 164               	.LBE219:
 165               	.LBE218:
 166               	.LM19:
 167 0058 D998      		cbi 59-32,1
 168               	.LBB222:
 169               	.LBB223:
 170               	.LBB224:
 171               	.LBB225:
 172               	.LBB226:
 173               	.LBB227:
 174               	.LM20:
 175 005a E0E9      		ldi r30,lo8(400)
 176 005c F1E0      		ldi r31,hi8(400)
 177               	.LVL9:
 178               	/* #APP */
 179               	 ;  105 "c:/winavr-20100110/lib/gcc/../../avr/include/util/delay_basic.h" 1
 180 005e 3197      		1: sbiw r30,1
 181 0060 01F4      		brne 1b
 182               	 ;  0 "" 2
 183               	/* #NOAPP */
 184               	.LBE227:
 185               	.LBE226:
 186               	.LBE225:
 187               	.LBE224:
 188               	.LBE223:
 189               	.LBE222:
 190               	.LM21:
 191 0062 9BB3      		in r25,59-32
 192               	.LVL10:
 193 0064 8295      		swap r24
 194               	.LVL11:
 195 0066 807F      		andi r24,lo8(-16)
 196 0068 9F70      		andi r25,lo8(15)
 197 006a 982B      		or r25,r24
 198 006c 9BBB      		out 59-32,r25
 199               	.LM22:
 200 006e D99A      		sbi 59-32,1
 201               	.LBB228:
 202               	.LBB229:
 203               	.LBB230:
 204               	.LBB231:
 205               	.LM23:
 206               	/* #APP */
 207               	 ;  83 "c:/winavr-20100110/lib/gcc/../../avr/include/util/delay_basic.h" 1
 208 0070 2A95      		1: dec r18
 209 0072 01F4      		brne 1b
 210               	 ;  0 "" 2
 211               	.LVL12:
 212               	/* #NOAPP */
 213               	.LBE231:
 214               	.LBE230:
 215               	.LBE229:
 216               	.LBE228:
 217               	.LM24:
 218 0074 D998      		cbi 59-32,1
 219               	.LBB232:
 220               	.LBB233:
 221               	.LBB234:
 222               	.LBB235:
 223               	.LM25:
 224 0076 80EA      		ldi r24,lo8(4000)
 225 0078 9FE0      		ldi r25,hi8(4000)
 226               	.LVL13:
 227               	/* #APP */
 228               	 ;  105 "c:/winavr-20100110/lib/gcc/../../avr/include/util/delay_basic.h" 1
 229 007a 0197      		1: sbiw r24,1
 230 007c 01F4      		brne 1b
 231               	 ;  0 "" 2
 232               	/* epilogue start */
 233               	/* #NOAPP */
 234               	.LBE235:
 235               	.LBE234:
 236               	.LBE233:
 237               	.LBE232:
 238               	.LM26:
 239 007e 0895      		ret
 240               	.LFE7:
 242               	.global	LCD_Init
 244               	LCD_Init:
 245               	.LFB8:
 246               	.LM27:
 247               	/* prologue: function */
 248               	/* frame size = 0 */
 249               	.LM28:
 250 0080 8FEF      		ldi r24,lo8(-1)
 251 0082 8ABB      		out 58-32,r24
 252               	.LBB236:
 253               	.LBB237:
 254               	.LBB238:
 255               	.LBB239:
 256               	.LM29:
 257 0084 80E4      		ldi r24,lo8(-25536)
 258 0086 9CE9      		ldi r25,hi8(-25536)
 259               	.LVL14:
 260               	/* #APP */
 261               	 ;  105 "c:/winavr-20100110/lib/gcc/../../avr/include/util/delay_basic.h" 1
 262 0088 0197      		1: sbiw r24,1
 263 008a 01F4      		brne 1b
 264               	 ;  0 "" 2
 265               	/* #NOAPP */
 266               	.LBE239:
 267               	.LBE238:
 268               	.LBE237:
 269               	.LBE236:
 270               	.LM30:
 271 008c 82E0      		ldi r24,lo8(2)
 272               	.LVL15:
 273 008e 0E94 0000 		call LCD_Command
 274               	.LM31:
 275 0092 88E2      		ldi r24,lo8(40)
 276 0094 0E94 0000 		call LCD_Command
 277               	.LM32:
 278 0098 8CE0      		ldi r24,lo8(12)
 279 009a 0E94 0000 		call LCD_Command
 280               	.LM33:
 281 009e 86E0      		ldi r24,lo8(6)
 282 00a0 0E94 0000 		call LCD_Command
 283               	.LM34:
 284 00a4 81E0      		ldi r24,lo8(1)
 285 00a6 0E94 0000 		call LCD_Command
 286               	.LBB240:
 287               	.LBB241:
 288               	.LBB242:
 289               	.LBB243:
 290               	.LM35:
 291 00aa 80EA      		ldi r24,lo8(4000)
 292 00ac 9FE0      		ldi r25,hi8(4000)
 293               	.LVL16:
 294               	/* #APP */
 295               	 ;  105 "c:/winavr-20100110/lib/gcc/../../avr/include/util/delay_basic.h" 1
 296 00ae 0197      		1: sbiw r24,1
 297 00b0 01F4      		brne 1b
 298               	 ;  0 "" 2
 299               	/* epilogue start */
 300               	/* #NOAPP */
 301               	.LBE243:
 302               	.LBE242:
 303               	.LBE241:
 304               	.LBE240:
 305               	.LM36:
 306 00b2 0895      		ret
 307               	.LFE8:
 309               	.global	LCD_String
 311               	LCD_String:
 312               	.LFB9:
 313               	.LM37:
 314               	.LVL17:
 315 00b4 CF93      		push r28
 316 00b6 DF93      		push r29
 317               	/* prologue: function */
 318               	/* frame size = 0 */
 319               	.LM38:
 320 00b8 EC01      		movw r28,r24
 321               	.LVL18:
 322 00ba 00C0      		rjmp .L8
 323               	.L9:
 324               	.LM39:
 325 00bc 0E94 0000 		call LCD_Char
 326               	.L8:
 327               	.LM40:
 328 00c0 8991      		ld r24,Y+
 329 00c2 8823      		tst r24
 330 00c4 01F4      		brne .L9
 331               	/* epilogue start */
 332               	.LM41:
 333 00c6 DF91      		pop r29
 334 00c8 CF91      		pop r28
 335 00ca 0895      		ret
 336               	.LFE9:
 338               	.global	LCD_String_xy
 340               	LCD_String_xy:
 341               	.LFB10:
 342               	.LM42:
 343               	.LVL19:
 344 00cc CF93      		push r28
 345 00ce DF93      		push r29
 346               	/* prologue: function */
 347               	/* frame size = 0 */
 348 00d0 EA01      		movw r28,r20
 349               	.LM43:
 350 00d2 8823      		tst r24
 351 00d4 01F4      		brne .L12
 352               	.LVL20:
 353 00d6 6031      		cpi r22,lo8(16)
 354 00d8 00F4      		brsh .L13
 355               	.LM44:
 356 00da 6F70      		andi r22,lo8(15)
 357               	.LVL21:
 358 00dc 862F      		mov r24,r22
 359               	.LVL22:
 360 00de 8068      		ori r24,lo8(-128)
 361 00e0 00C0      		rjmp .L15
 362               	.LVL23:
 363               	.L12:
 364               	.LM45:
 365 00e2 8130      		cpi r24,lo8(1)
 366 00e4 01F4      		brne .L13
 367 00e6 6031      		cpi r22,lo8(16)
 368 00e8 00F4      		brsh .L13
 369               	.LM46:
 370 00ea 6F70      		andi r22,lo8(15)
 371               	.LVL24:
 372 00ec 862F      		mov r24,r22
 373               	.LVL25:
 374 00ee 806C      		ori r24,lo8(-64)
 375               	.L15:
 376 00f0 0E94 0000 		call LCD_Command
 377               	.LVL26:
 378               	.L13:
 379               	.LM47:
 380 00f4 CE01      		movw r24,r28
 381               	.LVL27:
 382 00f6 0E94 0000 		call LCD_String
 383               	.LVL28:
 384               	/* epilogue start */
 385               	.LM48:
 386 00fa DF91      		pop r29
 387 00fc CF91      		pop r28
 388               	.LVL29:
 389 00fe 0895      		ret
 390               	.LFE10:
 392               	.global	LCD_Clear
 394               	LCD_Clear:
 395               	.LFB11:
 396               	.LM49:
 397               	/* prologue: function */
 398               	/* frame size = 0 */
 399               	.LM50:
 400 0100 81E0      		ldi r24,lo8(1)
 401 0102 0E94 0000 		call LCD_Command
 402               	.LBB244:
 403               	.LBB245:
 404               	.LBB246:
 405               	.LBB247:
 406               	.LM51:
 407 0106 80EA      		ldi r24,lo8(4000)
 408 0108 9FE0      		ldi r25,hi8(4000)
 409               	.LVL30:
 410               	/* #APP */
 411               	 ;  105 "c:/winavr-20100110/lib/gcc/../../avr/include/util/delay_basic.h" 1
 412 010a 0197      		1: sbiw r24,1
 413 010c 01F4      		brne 1b
 414               	 ;  0 "" 2
 415               	/* #NOAPP */
 416               	.LBE247:
 417               	.LBE246:
 418               	.LBE245:
 419               	.LBE244:
 420               	.LM52:
 421 010e 80E8      		ldi r24,lo8(-128)
 422               	.LVL31:
 423 0110 0E94 0000 		call LCD_Command
 424               	/* epilogue start */
 425               	.LM53:
 426 0114 0895      		ret
 427               	.LFE11:
 429               	.global	__vector_1
 431               	__vector_1:
 432               	.LFB13:
 433               	.LM54:
 434 0116 1F92      		push __zero_reg__
 435 0118 0F92      		push r0
 436 011a 0FB6      		in r0,__SREG__
 437 011c 0F92      		push r0
 438 011e 1124      		clr __zero_reg__
 439 0120 8F93      		push r24
 440               	/* prologue: Signal */
 441               	/* frame size = 0 */
 442               	.LM55:
 443 0122 8091 0000 		lds r24,channel_i
 444 0126 8F5F      		subi r24,lo8(-(1))
 445 0128 8093 0000 		sts channel_i,r24
 446               	.LM56:
 447 012c 8091 0000 		lds r24,channel_i
 448 0130 8A30      		cpi r24,lo8(10)
 449 0132 01F4      		brne .L20
 450               	.LM57:
 451 0134 81E0      		ldi r24,lo8(1)
 452 0136 8093 0000 		sts channel_i,r24
 453               	.L20:
 454               	/* epilogue start */
 455               	.LM58:
 456 013a 8F91      		pop r24
 457 013c 0F90      		pop r0
 458 013e 0FBE      		out __SREG__,r0
 459 0140 0F90      		pop r0
 460 0142 1F90      		pop __zero_reg__
 461 0144 1895      		reti
 462               	.LFE13:
 464               	.global	__vector_2
 466               	__vector_2:
 467               	.LFB14:
 468               	.LM59:
 469 0146 1F92      		push __zero_reg__
 470 0148 0F92      		push r0
 471 014a 0FB6      		in r0,__SREG__
 472 014c 0F92      		push r0
 473 014e 1124      		clr __zero_reg__
 474 0150 8F93      		push r24
 475               	/* prologue: Signal */
 476               	/* frame size = 0 */
 477               	.LM60:
 478 0152 8091 0000 		lds r24,start_program
 479 0156 8F5F      		subi r24,lo8(-(1))
 480 0158 8093 0000 		sts start_program,r24
 481               	/* epilogue start */
 482               	.LM61:
 483 015c 8F91      		pop r24
 484 015e 0F90      		pop r0
 485 0160 0FBE      		out __SREG__,r0
 486 0162 0F90      		pop r0
 487 0164 1F90      		pop __zero_reg__
 488 0166 1895      		reti
 489               	.LFE14:
 491               	.global	__vector_3
 493               	__vector_3:
 494               	.LFB15:
 495               	.LM62:
 496 0168 1F92      		push __zero_reg__
 497 016a 0F92      		push r0
 498 016c 0FB6      		in r0,__SREG__
 499 016e 0F92      		push r0
 500 0170 1124      		clr __zero_reg__
 501 0172 8F93      		push r24
 502               	/* prologue: Signal */
 503               	/* frame size = 0 */
 504               	.LM63:
 505 0174 8091 0000 		lds r24,accept
 506 0178 8F5F      		subi r24,lo8(-(1))
 507 017a 8093 0000 		sts accept,r24
 508               	/* epilogue start */
 509               	.LM64:
 510 017e 8F91      		pop r24
 511 0180 0F90      		pop r0
 512 0182 0FBE      		out __SREG__,r0
 513 0184 0F90      		pop r0
 514 0186 1F90      		pop __zero_reg__
 515 0188 1895      		reti
 516               	.LFE15:
 518               	.global	UART_init
 520               	UART_init:
 521               	.LFB16:
 522               	.LM65:
 523               	/* prologue: function */
 524               	/* frame size = 0 */
 525               	.LM66:
 526 018a 8AB1      		in r24,42-32
 527 018c 8861      		ori r24,lo8(24)
 528 018e 8AB9      		out 42-32,r24
 529               	.LM67:
 530 0190 80B5      		in r24,64-32
 531 0192 8668      		ori r24,lo8(-122)
 532 0194 80BD      		out 64-32,r24
 533               	.LM68:
 534 0196 83E3      		ldi r24,lo8(51)
 535 0198 89B9      		out 41-32,r24
 536               	.LM69:
 537 019a 10BC      		out 64-32,__zero_reg__
 538               	/* epilogue start */
 539               	.LM70:
 540 019c 0895      		ret
 541               	.LFE16:
 543               	.global	SPI_Init_Master
 545               	SPI_Init_Master:
 546               	.LFB17:
 547               	.LM71:
 548               	/* prologue: function */
 549               	/* frame size = 0 */
 550               	.LM72:
 551 019e 87B3      		in r24,55-32
 552 01a0 806B      		ori r24,lo8(-80)
 553 01a2 87BB      		out 55-32,r24
 554               	.LM73:
 555 01a4 BE98      		cbi 55-32,6
 556               	.LM74:
 557 01a6 C49A      		sbi 56-32,4
 558               	.LM75:
 559 01a8 8DB1      		in r24,45-32
 560 01aa 8165      		ori r24,lo8(81)
 561 01ac 8DB9      		out 45-32,r24
 562               	/* epilogue start */
 563               	.LM76:
 564 01ae 0895      		ret
 565               	.LFE17:
 567               	.global	SPI_Write_Master
 569               	SPI_Write_Master:
 570               	.LFB18:
 571               	.LM77:
 572               	.LVL32:
 573               	/* prologue: function */
 574               	/* frame size = 0 */
 575               	.LM78:
 576 01b0 8FB9      		out 47-32,r24
 577               	.L30:
 578               	.LM79:
 579 01b2 779B      		sbis 46-32,7
 580 01b4 00C0      		rjmp .L30
 581               	.LM80:
 582 01b6 8FB1      		in r24,47-32
 583               	.LVL33:
 584               	.LVL34:
 585               	/* epilogue start */
 586               	.LM81:
 587 01b8 0895      		ret
 588               	.LFE18:
 590               	.global	SPI_Read_Master
 592               	SPI_Read_Master:
 593               	.LFB19:
 594               	.LM82:
 595               	/* prologue: function */
 596               	/* frame size = 0 */
 597               	.LM83:
 598 01ba 8FEF      		ldi r24,lo8(-1)
 599 01bc 8FB9      		out 47-32,r24
 600               	.L34:
 601               	.LM84:
 602 01be 779B      		sbis 46-32,7
 603 01c0 00C0      		rjmp .L34
 604               	.LM85:
 605 01c2 8FB1      		in r24,47-32
 606               	/* epilogue start */
 607               	.LM86:
 608 01c4 0895      		ret
 609               	.LFE19:
 611               	.global	UART_TxChar
 613               	UART_TxChar:
 614               	.LFB20:
 615               	.LM87:
 616               	/* prologue: function */
 617               	/* frame size = 0 */
 618               	.LVL35:
 619               	.L38:
 620               	.LM88:
 621 01c6 5D9B      		sbis 43-32,5
 622 01c8 00C0      		rjmp .L38
 623               	.LM89:
 624 01ca 8CB9      		out 44-32,r24
 625               	/* epilogue start */
 626               	.LM90:
 627 01cc 0895      		ret
 628               	.LFE20:
 630               	.global	UART_RxChar
 632               	UART_RxChar:
 633               	.LFB21:
 634               	.LM91:
 635               	/* prologue: function */
 636               	/* frame size = 0 */
 637               	.L42:
 638               	.LM92:
 639 01ce 5F9B      		sbis 43-32,7
 640 01d0 00C0      		rjmp .L42
 641               	.LM93:
 642 01d2 8CB1      		in r24,44-32
 643               	/* epilogue start */
 644               	.LM94:
 645 01d4 0895      		ret
 646               	.LFE21:
 648               	.global	Chose_Channel
 650               	Chose_Channel:
 651               	.LFB22:
 652               	.LM95:
 653               	.LVL36:
 654               	/* prologue: function */
 655               	/* frame size = 0 */
 656               	.LM96:
 657 01d6 8330      		cpi r24,lo8(3)
 658 01d8 01F0      		breq .L50
 659 01da 8430      		cpi r24,lo8(4)
 660 01dc 00F4      		brsh .L55
 661 01de 8130      		cpi r24,lo8(1)
 662 01e0 01F0      		breq .L48
 663 01e2 8230      		cpi r24,lo8(2)
 664 01e4 00F4      		brsh .L49
 665 01e6 00C0      		rjmp .L63
 666               	.L55:
 667 01e8 8530      		cpi r24,lo8(5)
 668 01ea 01F0      		breq .L52
 669 01ec 8530      		cpi r24,lo8(5)
 670 01ee 00F0      		brlo .L51
 671 01f0 8630      		cpi r24,lo8(6)
 672 01f2 01F0      		breq .L53
 673 01f4 8730      		cpi r24,lo8(7)
 674 01f6 01F4      		brne .L56
 675 01f8 00C0      		rjmp .L64
 676               	.L63:
 677               	.LM97:
 678 01fa 86E0      		ldi r24,lo8(6)
 679               	.LVL37:
 680 01fc 00C0      		rjmp .L60
 681               	.LVL38:
 682               	.L48:
 683               	.LM98:
 684 01fe 86E0      		ldi r24,lo8(6)
 685               	.LVL39:
 686 0200 00C0      		rjmp .L61
 687               	.LVL40:
 688               	.L49:
 689               	.LM99:
 690 0202 86E0      		ldi r24,lo8(6)
 691               	.LVL41:
 692 0204 00C0      		rjmp .L62
 693               	.LVL42:
 694               	.L50:
 695               	.LM100:
 696 0206 86E0      		ldi r24,lo8(6)
 697               	.LVL43:
 698 0208 8093 0000 		sts count1,r24
 699               	.LM101:
 700 020c 80EC      		ldi r24,lo8(-64)
 701 020e 00C0      		rjmp .L58
 702               	.LVL44:
 703               	.L51:
 704               	.LM102:
 705 0210 87E0      		ldi r24,lo8(7)
 706               	.LVL45:
 707               	.L60:
 708 0212 8093 0000 		sts count1,r24
 709               	.LM103:
 710 0216 1092 0000 		sts count2,__zero_reg__
 711 021a 00C0      		rjmp .L59
 712               	.LVL46:
 713               	.L52:
 714               	.LM104:
 715 021c 87E0      		ldi r24,lo8(7)
 716               	.LVL47:
 717               	.L61:
 718 021e 8093 0000 		sts count1,r24
 719               	.LM105:
 720 0222 80E4      		ldi r24,lo8(64)
 721 0224 00C0      		rjmp .L58
 722               	.LVL48:
 723               	.L53:
 724               	.LM106:
 725 0226 87E0      		ldi r24,lo8(7)
 726               	.LVL49:
 727               	.L62:
 728 0228 8093 0000 		sts count1,r24
 729               	.LM107:
 730 022c 80E8      		ldi r24,lo8(-128)
 731               	.L58:
 732 022e 8093 0000 		sts count2,r24
 733               	.L59:
 734               	.LM108:
 735 0232 1092 0000 		sts count3,__zero_reg__
 736 0236 0895      		ret
 737               	.LVL50:
 738               	.L64:
 739               	.LM109:
 740 0238 8093 0000 		sts count1,r24
 741               	.LM110:
 742 023c 80EC      		ldi r24,lo8(-64)
 743               	.LVL51:
 744 023e 8093 0000 		sts count2,r24
 745               	.LM111:
 746 0242 1092 0000 		sts count3,__zero_reg__
 747               	.LVL52:
 748               	.L56:
 749 0246 0895      		ret
 750               	.LFE22:
 752               	.global	change_byte
 754               	change_byte:
 755               	.LFB23:
 756               	.LM112:
 757               	.LVL53:
 758               	/* prologue: function */
 759               	/* frame size = 0 */
 760               	.LM113:
 761 0248 8F70      		andi r24,lo8(15)
 762               	.LVL54:
 763               	/* epilogue start */
 764 024a 0895      		ret
 765               	.LFE23:
 767               	.global	UART_SendString
 769               	UART_SendString:
 770               	.LFB24:
 771               	.LM114:
 772               	/* prologue: function */
 773               	/* frame size = 0 */
 774               	.LVL55:
 775               	.L68:
 776               	.LBB248:
 777               	.LBB249:
 778               	.LM115:
 779 024c 5D9B      		sbis 43-32,5
 780 024e 00C0      		rjmp .L68
 781               	.LM116:
 782 0250 9CB9      		out 44-32,r25
 783               	.LVL56:
 784               	.L69:
 785               	.LBE249:
 786               	.LBE248:
 787               	.LBB250:
 788               	.LBB251:
 789               	.LM117:
 790 0252 5D9B      		sbis 43-32,5
 791 0254 00C0      		rjmp .L69
 792               	.LM118:
 793 0256 8CB9      		out 44-32,r24
 794               	.L70:
 795               	.LBE251:
 796               	.LBE250:
 797               	.LBB252:
 798               	.LBB253:
 799               	.LM119:
 800 0258 5D9B      		sbis 43-32,5
 801 025a 00C0      		rjmp .L70
 802               	.LM120:
 803 025c 8AE0      		ldi r24,lo8(10)
 804               	.LVL57:
 805 025e 8CB9      		out 44-32,r24
 806               	/* epilogue start */
 807               	.LBE253:
 808               	.LBE252:
 809               	.LM121:
 810 0260 0895      		ret
 811               	.LFE24:
 813               	.global	FirstDeviceEnable
 815               	FirstDeviceEnable:
 816               	.LFB25:
 817               	.LM122:
 818               	/* prologue: function */
 819               	/* frame size = 0 */
 820               	.LM123:
 821 0262 A898      		cbi 53-32,0
 822               	/* epilogue start */
 823               	.LM124:
 824 0264 0895      		ret
 825               	.LFE25:
 827               	.global	SecondDeviceEnable
 829               	SecondDeviceEnable:
 830               	.LFB26:
 831               	.LM125:
 832               	/* prologue: function */
 833               	/* frame size = 0 */
 834               	.LM126:
 835 0266 AF98      		cbi 53-32,7
 836               	/* epilogue start */
 837               	.LM127:
 838 0268 0895      		ret
 839               	.LFE26:
 841               	.global	FirstDeviceDisable
 843               	FirstDeviceDisable:
 844               	.LFB27:
 845               	.LM128:
 846               	/* prologue: function */
 847               	/* frame size = 0 */
 848               	.LM129:
 849 026a A89A      		sbi 53-32,0
 850               	/* epilogue start */
 851               	.LM130:
 852 026c 0895      		ret
 853               	.LFE27:
 855               	.global	SecondDeviceDisable
 857               	SecondDeviceDisable:
 858               	.LFB28:
 859               	.LM131:
 860               	/* prologue: function */
 861               	/* frame size = 0 */
 862               	.LM132:
 863 026e AF9A      		sbi 53-32,7
 864               	/* epilogue start */
 865               	.LM133:
 866 0270 0895      		ret
 867               	.LFE28:
 869               	.global	SendFirstData
 871               	SendFirstData:
 872               	.LFB29:
 873               	.LM134:
 874 0272 EF92      		push r14
 875 0274 FF92      		push r15
 876 0276 0F93      		push r16
 877 0278 1F93      		push r17
 878 027a CF93      		push r28
 879 027c DF93      		push r29
 880               	/* prologue: function */
 881               	/* frame size = 0 */
 882               	.LM135:
 883 027e 00E0      		ldi r16,lo8(0)
 884 0280 10E0      		ldi r17,hi8(0)
 885               	.LVL58:
 886 0282 C0E0      		ldi r28,lo8(0)
 887 0284 D0E0      		ldi r29,hi8(0)
 888               	.LVL59:
 889 0286 FF24      		clr r15
 890               	.LBB254:
 891               	.LBB255:
 892               	.LBB256:
 893               	.LM136:
 894 0288 9AE0      		ldi r25,lo8(10)
 895 028a E92E      		mov r14,r25
 896               	.LVL60:
 897               	.L90:
 898               	.LBE256:
 899               	.LBE255:
 900               	.LM137:
 901 028c 8F2D      		mov r24,r15
 902 028e 0E94 0000 		call Chose_Channel
 903               	.LVL61:
 904               	.LBB258:
 905               	.LBB259:
 906               	.LM138:
 907 0292 A898      		cbi 53-32,0
 908               	.LBE259:
 909               	.LBE258:
 910               	.LM139:
 911 0294 8091 0000 		lds r24,count1
 912               	.LBB260:
 913               	.LBB261:
 914               	.LM140:
 915 0298 8FB9      		out 47-32,r24
 916               	.L84:
 917               	.LM141:
 918 029a 779B      		sbis 46-32,7
 919 029c 00C0      		rjmp .L84
 920               	.LM142:
 921 029e 8FB1      		in r24,47-32
 922               	.LVL62:
 923               	.LBE261:
 924               	.LBE260:
 925               	.LM143:
 926 02a0 8091 0000 		lds r24,count2
 927               	.LVL63:
 928               	.LBB262:
 929               	.LBB263:
 930               	.LM144:
 931 02a4 8FB9      		out 47-32,r24
 932               	.L85:
 933               	.LM145:
 934 02a6 779B      		sbis 46-32,7
 935 02a8 00C0      		rjmp .L85
 936               	.LM146:
 937 02aa 9FB1      		in r25,47-32
 938               	.LVL64:
 939               	.LBE263:
 940               	.LBE262:
 941               	.LM147:
 942 02ac 9093 0000 		sts count2_s,r25
 943               	.LM148:
 944 02b0 8091 0000 		lds r24,count3
 945               	.LBB264:
 946               	.LBB265:
 947               	.LM149:
 948 02b4 8FB9      		out 47-32,r24
 949               	.L86:
 950               	.LM150:
 951 02b6 779B      		sbis 46-32,7
 952 02b8 00C0      		rjmp .L86
 953               	.LM151:
 954 02ba 8FB1      		in r24,47-32
 955               	.LVL65:
 956               	.LBE265:
 957               	.LBE264:
 958               	.LM152:
 959 02bc 8093 0000 		sts count3_s,r24
 960               	.LBB266:
 961               	.LBB267:
 962               	.LM153:
 963 02c0 A89A      		sbi 53-32,0
 964               	.LBE267:
 965               	.LBE266:
 966               	.LBB268:
 967               	.LBB269:
 968               	.LM154:
 969 02c2 9F70      		andi r25,lo8(15)
 970               	.LVL66:
 971               	.L87:
 972               	.LBE269:
 973               	.LBE268:
 974               	.LBB270:
 975               	.LBB271:
 976               	.LM155:
 977 02c4 5D9B      		sbis 43-32,5
 978 02c6 00C0      		rjmp .L87
 979               	.LM156:
 980 02c8 9CB9      		out 44-32,r25
 981               	.L88:
 982               	.LBE271:
 983               	.LBE270:
 984               	.LBB272:
 985               	.LBB273:
 986               	.LM157:
 987 02ca 5D9B      		sbis 43-32,5
 988 02cc 00C0      		rjmp .L88
 989               	.LM158:
 990 02ce 8CB9      		out 44-32,r24
 991               	.L89:
 992               	.LBE273:
 993               	.LBE272:
 994               	.LBB274:
 995               	.LBB257:
 996               	.LM159:
 997 02d0 5D9B      		sbis 43-32,5
 998 02d2 00C0      		rjmp .L89
 999               	.LM160:
 1000 02d4 ECB8      		out 44-32,r14
 1001               	.LBE257:
 1002               	.LBE274:
 1003               	.LM161:
 1004 02d6 090F      		add r16,r25
 1005 02d8 111D      		adc r17,__zero_reg__
 1006               	.LM162:
 1007 02da C80F      		add r28,r24
 1008 02dc D11D      		adc r29,__zero_reg__
 1009 02de F394      		inc r15
 1010               	.LM163:
 1011 02e0 88E0      		ldi r24,lo8(8)
 1012               	.LVL67:
 1013 02e2 F816      		cp r15,r24
 1014 02e4 01F4      		brne .L90
 1015               	.LBE254:
 1016               	.LM164:
 1017 02e6 902F      		mov r25,r16
 1018 02e8 8827      		clr r24
 1019 02ea 8C0F      		add r24,r28
 1020 02ec 9D1F      		adc r25,r29
 1021 02ee 9093 0000 		sts (sum_first_device)+1,r25
 1022 02f2 8093 0000 		sts sum_first_device,r24
 1023               	/* epilogue start */
 1024               	.LM165:
 1025 02f6 DF91      		pop r29
 1026 02f8 CF91      		pop r28
 1027               	.LVL68:
 1028 02fa 1F91      		pop r17
 1029 02fc 0F91      		pop r16
 1030               	.LVL69:
 1031 02fe FF90      		pop r15
 1032 0300 EF90      		pop r14
 1033 0302 0895      		ret
 1034               	.LFE29:
 1036               	.global	SendSecondData
 1038               	SendSecondData:
 1039               	.LFB30:
 1040               	.LM166:
 1041 0304 EF92      		push r14
 1042 0306 FF92      		push r15
 1043 0308 0F93      		push r16
 1044 030a 1F93      		push r17
 1045 030c CF93      		push r28
 1046 030e DF93      		push r29
 1047               	/* prologue: function */
 1048               	/* frame size = 0 */
 1049               	.LM167:
 1050 0310 00E0      		ldi r16,lo8(0)
 1051 0312 10E0      		ldi r17,hi8(0)
 1052               	.LVL70:
 1053 0314 C0E0      		ldi r28,lo8(0)
 1054 0316 D0E0      		ldi r29,hi8(0)
 1055               	.LVL71:
 1056 0318 FF24      		clr r15
 1057               	.LBB275:
 1058               	.LBB276:
 1059               	.LBB277:
 1060               	.LM168:
 1061 031a 3AE0      		ldi r19,lo8(10)
 1062 031c E32E      		mov r14,r19
 1063               	.LVL72:
 1064               	.L106:
 1065               	.LBE277:
 1066               	.LBE276:
 1067               	.LM169:
 1068 031e 8F2D      		mov r24,r15
 1069 0320 0E94 0000 		call Chose_Channel
 1070               	.LVL73:
 1071               	.LBB279:
 1072               	.LBB280:
 1073               	.LM170:
 1074 0324 AF98      		cbi 53-32,7
 1075               	.LBE280:
 1076               	.LBE279:
 1077               	.LM171:
 1078 0326 8091 0000 		lds r24,count1
 1079               	.LBB281:
 1080               	.LBB282:
 1081               	.LM172:
 1082 032a 8FB9      		out 47-32,r24
 1083               	.L100:
 1084               	.LM173:
 1085 032c 779B      		sbis 46-32,7
 1086 032e 00C0      		rjmp .L100
 1087               	.LM174:
 1088 0330 8FB1      		in r24,47-32
 1089               	.LVL74:
 1090               	.LBE282:
 1091               	.LBE281:
 1092               	.LM175:
 1093 0332 8091 0000 		lds r24,count2
 1094               	.LVL75:
 1095               	.LBB283:
 1096               	.LBB284:
 1097               	.LM176:
 1098 0336 8FB9      		out 47-32,r24
 1099               	.L101:
 1100               	.LM177:
 1101 0338 779B      		sbis 46-32,7
 1102 033a 00C0      		rjmp .L101
 1103               	.LM178:
 1104 033c 9FB1      		in r25,47-32
 1105               	.LVL76:
 1106               	.LBE284:
 1107               	.LBE283:
 1108               	.LM179:
 1109 033e 9093 0000 		sts count2_s,r25
 1110               	.LM180:
 1111 0342 8091 0000 		lds r24,count3
 1112               	.LBB285:
 1113               	.LBB286:
 1114               	.LM181:
 1115 0346 8FB9      		out 47-32,r24
 1116               	.L102:
 1117               	.LM182:
 1118 0348 779B      		sbis 46-32,7
 1119 034a 00C0      		rjmp .L102
 1120               	.LM183:
 1121 034c 8FB1      		in r24,47-32
 1122               	.LVL77:
 1123               	.LBE286:
 1124               	.LBE285:
 1125               	.LM184:
 1126 034e 8093 0000 		sts count3_s,r24
 1127               	.LBB287:
 1128               	.LBB288:
 1129               	.LM185:
 1130 0352 AF9A      		sbi 53-32,7
 1131               	.LBE288:
 1132               	.LBE287:
 1133               	.LBB289:
 1134               	.LBB290:
 1135               	.LM186:
 1136 0354 9F70      		andi r25,lo8(15)
 1137               	.LVL78:
 1138               	.L103:
 1139               	.LBE290:
 1140               	.LBE289:
 1141               	.LBB291:
 1142               	.LBB292:
 1143               	.LM187:
 1144 0356 5D9B      		sbis 43-32,5
 1145 0358 00C0      		rjmp .L103
 1146               	.LM188:
 1147 035a 9CB9      		out 44-32,r25
 1148               	.L104:
 1149               	.LBE292:
 1150               	.LBE291:
 1151               	.LBB293:
 1152               	.LBB294:
 1153               	.LM189:
 1154 035c 5D9B      		sbis 43-32,5
 1155 035e 00C0      		rjmp .L104
 1156               	.LM190:
 1157 0360 8CB9      		out 44-32,r24
 1158               	.L105:
 1159               	.LBE294:
 1160               	.LBE293:
 1161               	.LBB295:
 1162               	.LBB278:
 1163               	.LM191:
 1164 0362 5D9B      		sbis 43-32,5
 1165 0364 00C0      		rjmp .L105
 1166               	.LM192:
 1167 0366 ECB8      		out 44-32,r14
 1168               	.LBE278:
 1169               	.LBE295:
 1170               	.LM193:
 1171 0368 090F      		add r16,r25
 1172 036a 111D      		adc r17,__zero_reg__
 1173               	.LM194:
 1174 036c C80F      		add r28,r24
 1175 036e D11D      		adc r29,__zero_reg__
 1176 0370 F394      		inc r15
 1177               	.LM195:
 1178 0372 88E0      		ldi r24,lo8(8)
 1179               	.LVL79:
 1180 0374 F816      		cp r15,r24
 1181 0376 01F4      		brne .L106
 1182               	.LBE275:
 1183               	.LM196:
 1184 0378 902F      		mov r25,r16
 1185 037a 8827      		clr r24
 1186 037c 8C0F      		add r24,r28
 1187 037e 9D1F      		adc r25,r29
 1188 0380 9093 0000 		sts (sum_second_device)+1,r25
 1189 0384 8093 0000 		sts sum_second_device,r24
 1190               	/* epilogue start */
 1191               	.LM197:
 1192 0388 DF91      		pop r29
 1193 038a CF91      		pop r28
 1194               	.LVL80:
 1195 038c 1F91      		pop r17
 1196 038e 0F91      		pop r16
 1197               	.LVL81:
 1198 0390 FF90      		pop r15
 1199 0392 EF90      		pop r14
 1200 0394 0895      		ret
 1201               	.LFE30:
 1203               	.global	askLevel
 1205               	askLevel:
 1206               	.LFB31:
 1207               	.LM198:
 1208               	.LVL82:
 1209               	/* prologue: function */
 1210               	/* frame size = 0 */
 1211               	.LM199:
 1212 0396 8530      		cpi r24,5
 1213 0398 9105      		cpc r25,__zero_reg__
 1214 039a 01F0      		breq .L121
 1215 039c 8630      		cpi r24,6
 1216 039e 9105      		cpc r25,__zero_reg__
 1217 03a0 04F4      		brge .L127
 1218 03a2 8230      		cpi r24,2
 1219 03a4 9105      		cpc r25,__zero_reg__
 1220 03a6 01F0      		breq .L118
 1221 03a8 8330      		cpi r24,3
 1222 03aa 9105      		cpc r25,__zero_reg__
 1223 03ac 04F4      		brge .L128
 1224 03ae 0197      		sbiw r24,1
 1225 03b0 01F4      		brne .L116
 1226 03b2 00C0      		rjmp .L132
 1227               	.L128:
 1228 03b4 8330      		cpi r24,3
 1229 03b6 9105      		cpc r25,__zero_reg__
 1230 03b8 01F0      		breq .L119
 1231 03ba 0497      		sbiw r24,4
 1232 03bc 01F4      		brne .L116
 1233 03be 00C0      		rjmp .L133
 1234               	.L127:
 1235 03c0 8830      		cpi r24,8
 1236 03c2 9105      		cpc r25,__zero_reg__
 1237 03c4 01F0      		breq .L124
 1238 03c6 8930      		cpi r24,9
 1239 03c8 9105      		cpc r25,__zero_reg__
 1240 03ca 04F4      		brge .L129
 1241 03cc 8630      		cpi r24,6
 1242 03ce 9105      		cpc r25,__zero_reg__
 1243 03d0 01F0      		breq .L122
 1244 03d2 0797      		sbiw r24,7
 1245 03d4 01F4      		brne .L116
 1246 03d6 00C0      		rjmp .L134
 1247               	.L129:
 1248 03d8 8930      		cpi r24,9
 1249 03da 9105      		cpc r25,__zero_reg__
 1250 03dc 01F0      		breq .L125
 1251 03de 0A97      		sbiw r24,10
 1252 03e0 01F4      		brne .L116
 1253 03e2 00C0      		rjmp .L135
 1254               	.L118:
 1255 03e4 82E3      		ldi r24,lo8(50)
 1256               	.LVL83:
 1257 03e6 0895      		ret
 1258               	.LVL84:
 1259               	.L119:
 1260 03e8 83E3      		ldi r24,lo8(51)
 1261               	.LVL85:
 1262 03ea 0895      		ret
 1263               	.LVL86:
 1264               	.L133:
 1265               	.LM200:
 1266 03ec 84E3      		ldi r24,lo8(52)
 1267               	.LVL87:
 1268 03ee 0895      		ret
 1269               	.LVL88:
 1270               	.L121:
 1271               	.LM201:
 1272 03f0 85E3      		ldi r24,lo8(53)
 1273               	.LVL89:
 1274 03f2 0895      		ret
 1275               	.LVL90:
 1276               	.L122:
 1277               	.LM202:
 1278 03f4 86E3      		ldi r24,lo8(54)
 1279               	.LVL91:
 1280 03f6 0895      		ret
 1281               	.LVL92:
 1282               	.L134:
 1283               	.LM203:
 1284 03f8 87E3      		ldi r24,lo8(55)
 1285               	.LVL93:
 1286 03fa 0895      		ret
 1287               	.LVL94:
 1288               	.L124:
 1289               	.LM204:
 1290 03fc 88E3      		ldi r24,lo8(56)
 1291               	.LVL95:
 1292 03fe 0895      		ret
 1293               	.LVL96:
 1294               	.L125:
 1295               	.LM205:
 1296 0400 89E3      		ldi r24,lo8(57)
 1297               	.LVL97:
 1298 0402 0895      		ret
 1299               	.LVL98:
 1300               	.L135:
 1301               	.LM206:
 1302 0404 80E3      		ldi r24,lo8(48)
 1303               	.LVL99:
 1304 0406 0895      		ret
 1305               	.LVL100:
 1306               	.L116:
 1307               	.LVL101:
 1308 0408 0895      		ret
 1309               	.LVL102:
 1310               	.L132:
 1311               	.LM207:
 1312 040a 81E3      		ldi r24,lo8(49)
 1313               	.LVL103:
 1314 040c 0895      		ret
 1315               	.LFE31:
 1317               		.data
 1318               	.LC0:
 1319 0000 2564 00   		.string	"%d"
 1320               	.LC1:
 1321 0003 2020 2020 		.string	"    Hello "
 1321      4865 6C6C 
 1321      6F20 00
 1322               	.LC2:
 1323 000e 2020 2020 		.string	"     user! "
 1323      2075 7365 
 1323      7221 2000 
 1324               	.LC3:
 1325 001a 2057 6169 		.string	" Waiting for  "
 1325      7469 6E67 
 1325      2066 6F72 
 1325      2020 00
 1326               	.LC4:
 1327 0029 2020 2020 		.string	"    device..."
 1327      6465 7669 
 1327      6365 2E2E 
 1327      2E00 
 1328               	.LC5:
 1329 0037 2020 2044 		.string	"   Device "
 1329      6576 6963 
 1329      6520 00
 1330               	.LC6:
 1331 0042 2069 7320 		.string	" is working "
 1331      776F 726B 
 1331      696E 6720 
 1331      00
 1332               	.LC7:
 1333 004f 2043 686F 		.string	" Choose lvl:"
 1333      6F73 6520 
 1333      6C76 6C3A 
 1333      00
 1334               	.LC8:
 1335 005c 596F 7520 		.string	"You chose lvl:"
 1335      6368 6F73 
 1335      6520 6C76 
 1335      6C3A 00
 1336               		.text
 1337               	.global	lcd_option
 1339               	lcd_option:
 1340               	.LFB32:
 1341               	.LM208:
 1342               	.LVL104:
 1343 040e 0F93      		push r16
 1344 0410 1F93      		push r17
 1345 0412 CF93      		push r28
 1346 0414 DF93      		push r29
 1347               	/* prologue: function */
 1348               	/* frame size = 0 */
 1349 0416 EC01      		movw r28,r24
 1350               	.LM209:
 1351 0418 2091 0000 		lds r18,channel_i
 1352 041c 00D0      		rcall .
 1353 041e 00D0      		rcall .
 1354 0420 00D0      		rcall .
 1355 0422 EDB7      		in r30,__SP_L__
 1356 0424 FEB7      		in r31,__SP_H__
 1357 0426 3196      		adiw r30,1
 1358 0428 00E0      		ldi r16,lo8(buffer1)
 1359 042a 10E0      		ldi r17,hi8(buffer1)
 1360 042c ADB7      		in r26,__SP_L__
 1361 042e BEB7      		in r27,__SP_H__
 1362 0430 1296      		adiw r26,1+1
 1363 0432 1C93      		st X,r17
 1364 0434 0E93      		st -X,r16
 1365 0436 1197      		sbiw r26,1
 1366 0438 80E0      		ldi r24,lo8(.LC0)
 1367 043a 90E0      		ldi r25,hi8(.LC0)
 1368               	.LVL105:
 1369 043c 9383      		std Z+3,r25
 1370 043e 8283      		std Z+2,r24
 1371 0440 2483      		std Z+4,r18
 1372 0442 1582      		std Z+5,__zero_reg__
 1373 0444 0E94 0000 		call sprintf
 1374               	.LM210:
 1375 0448 8DB7      		in r24,__SP_L__
 1376 044a 9EB7      		in r25,__SP_H__
 1377 044c 0696      		adiw r24,6
 1378 044e 0FB6      		in __tmp_reg__,__SREG__
 1379 0450 F894      		cli
 1380 0452 9EBF      		out __SP_H__,r25
 1381 0454 0FBE      		out __SREG__,__tmp_reg__
 1382 0456 8DBF      		out __SP_L__,r24
 1383 0458 C233      		cpi r28,50
 1384 045a D105      		cpc r29,__zero_reg__
 1385 045c 01F0      		breq .L140
 1386 045e C333      		cpi r28,51
 1387 0460 D105      		cpc r29,__zero_reg__
 1388 0462 04F4      		brge .L143
 1389 0464 C033      		cpi r28,48
 1390 0466 D105      		cpc r29,__zero_reg__
 1391 0468 01F0      		breq .L138
 1392 046a E197      		sbiw r28,49
 1393 046c 01F4      		brne .L144
 1394 046e 00C0      		rjmp .L147
 1395               	.L143:
 1396 0470 C333      		cpi r28,51
 1397 0472 D105      		cpc r29,__zero_reg__
 1398 0474 01F0      		breq .L141
 1399 0476 E497      		sbiw r28,52
 1400 0478 01F4      		brne .L144
 1401 047a 00C0      		rjmp .L148
 1402               	.L138:
 1403               	.LM211:
 1404 047c 80E0      		ldi r24,lo8(.LC1)
 1405 047e 90E0      		ldi r25,hi8(.LC1)
 1406 0480 0E94 0000 		call LCD_String
 1407               	.LM212:
 1408 0484 80EC      		ldi r24,lo8(-64)
 1409 0486 0E94 0000 		call LCD_Command
 1410               	.LM213:
 1411 048a 80E0      		ldi r24,lo8(.LC2)
 1412 048c 90E0      		ldi r25,hi8(.LC2)
 1413 048e 00C0      		rjmp .L145
 1414               	.L147:
 1415               	.LM214:
 1416 0490 80E0      		ldi r24,lo8(.LC3)
 1417 0492 90E0      		ldi r25,hi8(.LC3)
 1418 0494 0E94 0000 		call LCD_String
 1419               	.LM215:
 1420 0498 80EC      		ldi r24,lo8(-64)
 1421 049a 0E94 0000 		call LCD_Command
 1422               	.LM216:
 1423 049e 80E0      		ldi r24,lo8(.LC4)
 1424 04a0 90E0      		ldi r25,hi8(.LC4)
 1425 04a2 00C0      		rjmp .L145
 1426               	.L140:
 1427               	.LM217:
 1428 04a4 80E0      		ldi r24,lo8(.LC5)
 1429 04a6 90E0      		ldi r25,hi8(.LC5)
 1430 04a8 0E94 0000 		call LCD_String
 1431               	.LM218:
 1432 04ac 80EC      		ldi r24,lo8(-64)
 1433 04ae 0E94 0000 		call LCD_Command
 1434               	.LM219:
 1435 04b2 80E0      		ldi r24,lo8(.LC6)
 1436 04b4 90E0      		ldi r25,hi8(.LC6)
 1437 04b6 00C0      		rjmp .L145
 1438               	.L141:
 1439               	.LM220:
 1440 04b8 80E0      		ldi r24,lo8(.LC7)
 1441 04ba 90E0      		ldi r25,hi8(.LC7)
 1442 04bc 00C0      		rjmp .L146
 1443               	.L148:
 1444               	.LM221:
 1445 04be 80E0      		ldi r24,lo8(.LC8)
 1446 04c0 90E0      		ldi r25,hi8(.LC8)
 1447               	.L146:
 1448 04c2 0E94 0000 		call LCD_String
 1449               	.LM222:
 1450 04c6 80EC      		ldi r24,lo8(-64)
 1451 04c8 0E94 0000 		call LCD_Command
 1452               	.LM223:
 1453 04cc C801      		movw r24,r16
 1454               	.L145:
 1455 04ce 0E94 0000 		call LCD_String
 1456               	.L144:
 1457               	/* epilogue start */
 1458               	.LM224:
 1459 04d2 DF91      		pop r29
 1460 04d4 CF91      		pop r28
 1461               	.LVL106:
 1462 04d6 1F91      		pop r17
 1463 04d8 0F91      		pop r16
 1464 04da 0895      		ret
 1465               	.LFE32:
 1467               	.global	main
 1469               	main:
 1470               	.LFB33:
 1471               	.LM225:
 1472 04dc CF93      		push r28
 1473 04de DF93      		push r29
 1474               	/* prologue: function */
 1475               	/* frame size = 0 */
 1476               	.LM226:
 1477 04e0 A09A      		sbi 52-32,0
 1478               	.LM227:
 1479 04e2 A79A      		sbi 52-32,7
 1480               	.LM228:
 1481 04e4 8A98      		cbi 49-32,2
 1482               	.LM229:
 1483 04e6 8B98      		cbi 49-32,3
 1484               	.LM230:
 1485 04e8 BA98      		cbi 55-32,2
 1486               	.LM231:
 1487 04ea 0E94 0000 		call LCD_Init
 1488               	.LM232:
 1489 04ee A89A      		sbi 53-32,0
 1490               	.LM233:
 1491 04f0 AF9A      		sbi 53-32,7
 1492               	.LM234:
 1493 04f2 929A      		sbi 50-32,2
 1494               	.LM235:
 1495 04f4 939A      		sbi 50-32,3
 1496               	.LM236:
 1497 04f6 C29A      		sbi 56-32,2
 1498               	.LM237:
 1499 04f8 85B7      		in r24,85-32
 1500 04fa 8A60      		ori r24,lo8(10)
 1501 04fc 85BF      		out 85-32,r24
 1502               	.LM238:
 1503 04fe 84B7      		in r24,84-32
 1504 0500 8064      		ori r24,lo8(64)
 1505 0502 84BF      		out 84-32,r24
 1506               	.LM239:
 1507 0504 8BB7      		in r24,91-32
 1508 0506 806E      		ori r24,lo8(-32)
 1509 0508 8BBF      		out 91-32,r24
 1510               	.LM240:
 1511               	/* #APP */
 1512               	 ;  381 "main.c" 1
 1513 050a 7894      		sei
 1514               	 ;  0 "" 2
 1515               	.LM241:
 1516               	/* #NOAPP */
 1517 050c 0E94 0000 		call UART_init
 1518               	.LM242:
 1519 0510 0E94 0000 		call SPI_Init_Master
 1520               	.L150:
 1521               	.LBB296:
 1522               	.LBB297:
 1523               	.LM243:
 1524 0514 5D9B      		sbis 43-32,5
 1525 0516 00C0      		rjmp .L150
 1526               	.LM244:
 1527 0518 8FEF      		ldi r24,lo8(-1)
 1528 051a 8CB9      		out 44-32,r24
 1529               	.L151:
 1530               	.LBE297:
 1531               	.LBE296:
 1532               	.LBB298:
 1533               	.LBB299:
 1534               	.LM245:
 1535 051c 5D9B      		sbis 43-32,5
 1536 051e 00C0      		rjmp .L151
 1537               	.LM246:
 1538 0520 8AE0      		ldi r24,lo8(10)
 1539 0522 8CB9      		out 44-32,r24
 1540               	.L152:
 1541               	.LBE299:
 1542               	.LBE298:
 1543               	.LBB300:
 1544               	.LBB301:
 1545               	.LM247:
 1546 0524 5D9B      		sbis 43-32,5
 1547 0526 00C0      		rjmp .L152
 1548               	.LM248:
 1549 0528 80E1      		ldi r24,lo8(16)
 1550 052a 8CB9      		out 44-32,r24
 1551               	.L153:
 1552               	.LBE301:
 1553               	.LBE300:
 1554               	.LBB302:
 1555               	.LBB303:
 1556               	.LM249:
 1557 052c 5D9B      		sbis 43-32,5
 1558 052e 00C0      		rjmp .L153
 1559               	.LM250:
 1560 0530 8AE0      		ldi r24,lo8(10)
 1561 0532 8CB9      		out 44-32,r24
 1562               	.LBE303:
 1563               	.LBE302:
 1564               	.LM251:
 1565 0534 0E94 0000 		call SendFirstData
 1566               	.LM252:
 1567 0538 A89A      		sbi 53-32,0
 1568               	.LM253:
 1569 053a AF9A      		sbi 53-32,7
 1570               	.LM254:
 1571 053c 0E94 0000 		call SendSecondData
 1572               	.LM255:
 1573 0540 8091 0000 		lds r24,sum_first_device
 1574 0544 9091 0000 		lds r25,(sum_first_device)+1
 1575 0548 0E94 0000 		call UART_SendString
 1576               	.LM256:
 1577 054c 8091 0000 		lds r24,sum_second_device
 1578 0550 9091 0000 		lds r25,(sum_second_device)+1
 1579 0554 0E94 0000 		call UART_SendString
 1580               	.L154:
 1581               	.LBB304:
 1582               	.LBB305:
 1583               	.LM257:
 1584 0558 5D9B      		sbis 43-32,5
 1585 055a 00C0      		rjmp .L154
 1586               	.LM258:
 1587 055c 8FEF      		ldi r24,lo8(-1)
 1588 055e 8CB9      		out 44-32,r24
 1589               	.L155:
 1590               	.LBE305:
 1591               	.LBE304:
 1592               	.LBB306:
 1593               	.LBB307:
 1594               	.LM259:
 1595 0560 5D9B      		sbis 43-32,5
 1596 0562 00C0      		rjmp .L155
 1597               	.LM260:
 1598 0564 8AE0      		ldi r24,lo8(10)
 1599 0566 8CB9      		out 44-32,r24
 1600               	.LBE307:
 1601               	.LBE306:
 1602               	.LM261:
 1603 0568 80E3      		ldi r24,lo8(48)
 1604 056a 90E0      		ldi r25,hi8(48)
 1605 056c 0E94 0000 		call lcd_option
 1606 0570 80E5      		ldi r24,lo8(-15536)
 1607 0572 93EC      		ldi r25,hi8(-15536)
 1608               	.LVL107:
 1609               	.LBB308:
 1610               	.LBB309:
 1611               	.LBB310:
 1612               	.LBB311:
 1613               	.LM262:
 1614 0574 28EC      		ldi r18,lo8(200)
 1615 0576 30E0      		ldi r19,hi8(200)
 1616               	.L156:
 1617 0578 F901      		movw r30,r18
 1618               	.LVL108:
 1619               	/* #APP */
 1620               	 ;  105 "c:/winavr-20100110/lib/gcc/../../avr/include/util/delay_basic.h" 1
 1621 057a 3197      		1: sbiw r30,1
 1622 057c 01F4      		brne 1b
 1623               	 ;  0 "" 2
 1624               	/* #NOAPP */
 1625               	.LBE311:
 1626               	.LBE310:
 1627               	.LM263:
 1628 057e 0197      		sbiw r24,1
 1629               	.LM264:
 1630 0580 01F4      		brne .L156
 1631               	.LBE309:
 1632               	.LBE308:
 1633               	.LM265:
 1634 0582 0E94 0000 		call LCD_Clear
 1635               	.LVL109:
 1636               	.LM266:
 1637 0586 81E3      		ldi r24,lo8(49)
 1638 0588 90E0      		ldi r25,hi8(49)
 1639 058a 0E94 0000 		call lcd_option
 1640 058e 80E5      		ldi r24,lo8(-15536)
 1641 0590 93EC      		ldi r25,hi8(-15536)
 1642               	.LVL110:
 1643               	.LBB312:
 1644               	.LBB313:
 1645               	.LBB314:
 1646               	.LBB315:
 1647               	.LM267:
 1648 0592 28EC      		ldi r18,lo8(200)
 1649 0594 30E0      		ldi r19,hi8(200)
 1650               	.L157:
 1651 0596 F901      		movw r30,r18
 1652               	.LVL111:
 1653               	/* #APP */
 1654               	 ;  105 "c:/winavr-20100110/lib/gcc/../../avr/include/util/delay_basic.h" 1
 1655 0598 3197      		1: sbiw r30,1
 1656 059a 01F4      		brne 1b
 1657               	 ;  0 "" 2
 1658               	/* #NOAPP */
 1659               	.LBE315:
 1660               	.LBE314:
 1661               	.LM268:
 1662 059c 0197      		sbiw r24,1
 1663               	.LM269:
 1664 059e 01F4      		brne .L157
 1665               	.L170:
 1666               	.LBE313:
 1667               	.LBE312:
 1668               	.LBB316:
 1669               	.LBB317:
 1670               	.LM270:
 1671 05a0 5F9B      		sbis 43-32,7
 1672 05a2 00C0      		rjmp .L170
 1673               	.LM271:
 1674 05a4 8CB1      		in r24,44-32
 1675               	.LVL112:
 1676               	.LBE317:
 1677               	.LBE316:
 1678               	.LM272:
 1679 05a6 90E0      		ldi r25,lo8(0)
 1680 05a8 9093 0000 		sts (c)+1,r25
 1681 05ac 8093 0000 		sts c,r24
 1682               	.LM273:
 1683 05b0 0E94 0000 		call LCD_Clear
 1684               	.LVL113:
 1685               	.LM274:
 1686 05b4 82E3      		ldi r24,lo8(50)
 1687 05b6 90E0      		ldi r25,hi8(50)
 1688 05b8 0E94 0000 		call lcd_option
 1689 05bc 80E5      		ldi r24,lo8(-15536)
 1690 05be 93EC      		ldi r25,hi8(-15536)
 1691               	.LVL114:
 1692               	.LBB318:
 1693               	.LBB319:
 1694               	.LBB320:
 1695               	.LBB321:
 1696               	.LM275:
 1697 05c0 28EC      		ldi r18,lo8(200)
 1698 05c2 30E0      		ldi r19,hi8(200)
 1699               	.L159:
 1700 05c4 F901      		movw r30,r18
 1701               	.LVL115:
 1702               	/* #APP */
 1703               	 ;  105 "c:/winavr-20100110/lib/gcc/../../avr/include/util/delay_basic.h" 1
 1704 05c6 3197      		1: sbiw r30,1
 1705 05c8 01F4      		brne 1b
 1706               	 ;  0 "" 2
 1707               	/* #NOAPP */
 1708               	.LBE321:
 1709               	.LBE320:
 1710               	.LM276:
 1711 05ca 0197      		sbiw r24,1
 1712               	.LM277:
 1713 05cc 01F4      		brne .L159
 1714               	.LBE319:
 1715               	.LBE318:
 1716               	.LM278:
 1717 05ce 0E94 0000 		call LCD_Clear
 1718               	.LVL116:
 1719               	.LM279:
 1720 05d2 1092 0000 		sts accept,__zero_reg__
 1721               	.LBB322:
 1722               	.LBB323:
 1723               	.LBB324:
 1724               	.LBB325:
 1725               	.LM280:
 1726 05d6 C8EC      		ldi r28,lo8(200)
 1727 05d8 D0E0      		ldi r29,hi8(200)
 1728 05da 00C0      		rjmp .L160
 1729               	.L162:
 1730               	.LBE325:
 1731               	.LBE324:
 1732               	.LBE323:
 1733               	.LBE322:
 1734               	.LM281:
 1735 05dc 83E3      		ldi r24,lo8(51)
 1736 05de 90E0      		ldi r25,hi8(51)
 1737 05e0 0E94 0000 		call lcd_option
 1738 05e4 88EE      		ldi r24,lo8(1000)
 1739 05e6 93E0      		ldi r25,hi8(1000)
 1740               	.LVL117:
 1741               	.L161:
 1742               	.LBB329:
 1743               	.LBB328:
 1744               	.LBB327:
 1745               	.LBB326:
 1746               	.LM282:
 1747 05e8 FE01      		movw r30,r28
 1748               	.LVL118:
 1749               	/* #APP */
 1750               	 ;  105 "c:/winavr-20100110/lib/gcc/../../avr/include/util/delay_basic.h" 1
 1751 05ea 3197      		1: sbiw r30,1
 1752 05ec 01F4      		brne 1b
 1753               	 ;  0 "" 2
 1754               	/* #NOAPP */
 1755               	.LBE326:
 1756               	.LBE327:
 1757               	.LM283:
 1758 05ee 0197      		sbiw r24,1
 1759               	.LM284:
 1760 05f0 01F4      		brne .L161
 1761               	.LBE328:
 1762               	.LBE329:
 1763               	.LM285:
 1764 05f2 0E94 0000 		call LCD_Clear
 1765               	.LVL119:
 1766               	.L160:
 1767               	.LM286:
 1768 05f6 8091 0000 		lds r24,accept
 1769 05fa 8823      		tst r24
 1770 05fc 01F0      		breq .L162
 1771               	.LM287:
 1772 05fe 83E3      		ldi r24,lo8(51)
 1773 0600 90E0      		ldi r25,hi8(51)
 1774 0602 0E94 0000 		call lcd_option
 1775 0606 80E3      		ldi r24,lo8(30000)
 1776 0608 95E7      		ldi r25,hi8(30000)
 1777               	.LVL120:
 1778               	.LBB330:
 1779               	.LBB331:
 1780               	.LBB332:
 1781               	.LBB333:
 1782               	.LM288:
 1783 060a 28EC      		ldi r18,lo8(200)
 1784 060c 30E0      		ldi r19,hi8(200)
 1785               	.L163:
 1786 060e F901      		movw r30,r18
 1787               	.LVL121:
 1788               	/* #APP */
 1789               	 ;  105 "c:/winavr-20100110/lib/gcc/../../avr/include/util/delay_basic.h" 1
 1790 0610 3197      		1: sbiw r30,1
 1791 0612 01F4      		brne 1b
 1792               	 ;  0 "" 2
 1793               	/* #NOAPP */
 1794               	.LBE333:
 1795               	.LBE332:
 1796               	.LM289:
 1797 0614 0197      		sbiw r24,1
 1798               	.LM290:
 1799 0616 01F4      		brne .L163
 1800               	.LBE331:
 1801               	.LBE330:
 1802               	.LM291:
 1803 0618 1092 0000 		sts accept,__zero_reg__
 1804               	.L164:
 1805               	.LM292:
 1806 061c 8091 0000 		lds r24,accept
 1807               	.LVL122:
 1808 0620 8823      		tst r24
 1809 0622 01F0      		breq .L164
 1810               	.LM293:
 1811 0624 0E94 0000 		call LCD_Clear
 1812               	.LVL123:
 1813               	.LM294:
 1814 0628 84E3      		ldi r24,lo8(52)
 1815 062a 90E0      		ldi r25,hi8(52)
 1816 062c 0E94 0000 		call lcd_option
 1817 0630 80E3      		ldi r24,lo8(30000)
 1818 0632 95E7      		ldi r25,hi8(30000)
 1819               	.LVL124:
 1820               	.LBB334:
 1821               	.LBB335:
 1822               	.LBB336:
 1823               	.LBB337:
 1824               	.LM295:
 1825 0634 28EC      		ldi r18,lo8(200)
 1826 0636 30E0      		ldi r19,hi8(200)
 1827               	.L165:
 1828 0638 F901      		movw r30,r18
 1829               	.LVL125:
 1830               	/* #APP */
 1831               	 ;  105 "c:/winavr-20100110/lib/gcc/../../avr/include/util/delay_basic.h" 1
 1832 063a 3197      		1: sbiw r30,1
 1833 063c 01F4      		brne 1b
 1834               	 ;  0 "" 2
 1835               	/* #NOAPP */
 1836               	.LBE337:
 1837               	.LBE336:
 1838               	.LM296:
 1839 063e 0197      		sbiw r24,1
 1840               	.LM297:
 1841 0640 01F4      		brne .L165
 1842               	.L169:
 1843               	.LBE335:
 1844               	.LBE334:
 1845               	.LBB338:
 1846               	.LBB339:
 1847               	.LM298:
 1848 0642 5F9B      		sbis 43-32,7
 1849 0644 00C0      		rjmp .L169
 1850               	.LM299:
 1851 0646 8CB1      		in r24,44-32
 1852               	.LVL126:
 1853               	.LBE339:
 1854               	.LBE338:
 1855               	.LM300:
 1856 0648 90E0      		ldi r25,lo8(0)
 1857 064a 9093 0000 		sts (c)+1,r25
 1858 064e 8093 0000 		sts c,r24
 1859               	.L167:
 1860 0652 00C0      		rjmp .L167
 1861               	.LFE33:
 1863               	.global	sum_first_device
 1864               	.global	sum_first_device
 1865               		.section .bss
 1868               	sum_first_device:
 1869 0000 0000      		.skip 2,0
 1870               	.global	sum_second_device
 1871               	.global	sum_second_device
 1874               	sum_second_device:
 1875 0002 0000      		.skip 2,0
 1876               	.global	channel_i
 1877               		.data
 1880               	channel_i:
 1881 006b 01        		.byte	1
 1882               	.global	start_program
 1883               	.global	start_program
 1884               		.section .bss
 1887               	start_program:
 1888 0004 00        		.skip 1,0
 1889               	.global	accept
 1890               	.global	accept
 1893               	accept:
 1894 0005 00        		.skip 1,0
 1895               	.global	c
 1896               	.global	c
 1899               	c:
 1900 0006 0000      		.skip 2,0
 1901               		.comm count1,1,1
 1902               		.comm count2,1,1
 1903               		.comm count3,1,1
 1904               		.comm count1_s,1,1
 1905               		.comm count2_s,1,1
 1906               		.comm count3_s,1,1
 1907               		.comm channel2,1,1
 1908               		.comm buffer1,2,1
 2141               	.Letext0:
DEFINED SYMBOLS
                            *ABS*:00000000 main.c
C:\Users\aleks\AppData\Local\Temp/ccQq8hXr.s:2      *ABS*:0000003f __SREG__
C:\Users\aleks\AppData\Local\Temp/ccQq8hXr.s:3      *ABS*:0000003e __SP_H__
C:\Users\aleks\AppData\Local\Temp/ccQq8hXr.s:4      *ABS*:0000003d __SP_L__
C:\Users\aleks\AppData\Local\Temp/ccQq8hXr.s:5      *ABS*:00000034 __CCP__
C:\Users\aleks\AppData\Local\Temp/ccQq8hXr.s:6      *ABS*:00000000 __tmp_reg__
C:\Users\aleks\AppData\Local\Temp/ccQq8hXr.s:7      *ABS*:00000001 __zero_reg__
C:\Users\aleks\AppData\Local\Temp/ccQq8hXr.s:18     .text:00000000 LCD_Command
C:\Users\aleks\AppData\Local\Temp/ccQq8hXr.s:131    .text:00000040 LCD_Char
C:\Users\aleks\AppData\Local\Temp/ccQq8hXr.s:244    .text:00000080 LCD_Init
C:\Users\aleks\AppData\Local\Temp/ccQq8hXr.s:311    .text:000000b4 LCD_String
C:\Users\aleks\AppData\Local\Temp/ccQq8hXr.s:340    .text:000000cc LCD_String_xy
C:\Users\aleks\AppData\Local\Temp/ccQq8hXr.s:394    .text:00000100 LCD_Clear
C:\Users\aleks\AppData\Local\Temp/ccQq8hXr.s:431    .text:00000116 __vector_1
C:\Users\aleks\AppData\Local\Temp/ccQq8hXr.s:1880   .data:0000006b channel_i
C:\Users\aleks\AppData\Local\Temp/ccQq8hXr.s:466    .text:00000146 __vector_2
C:\Users\aleks\AppData\Local\Temp/ccQq8hXr.s:1887   .bss:00000004 start_program
C:\Users\aleks\AppData\Local\Temp/ccQq8hXr.s:493    .text:00000168 __vector_3
C:\Users\aleks\AppData\Local\Temp/ccQq8hXr.s:1893   .bss:00000005 accept
C:\Users\aleks\AppData\Local\Temp/ccQq8hXr.s:520    .text:0000018a UART_init
C:\Users\aleks\AppData\Local\Temp/ccQq8hXr.s:545    .text:0000019e SPI_Init_Master
C:\Users\aleks\AppData\Local\Temp/ccQq8hXr.s:569    .text:000001b0 SPI_Write_Master
C:\Users\aleks\AppData\Local\Temp/ccQq8hXr.s:592    .text:000001ba SPI_Read_Master
C:\Users\aleks\AppData\Local\Temp/ccQq8hXr.s:613    .text:000001c6 UART_TxChar
C:\Users\aleks\AppData\Local\Temp/ccQq8hXr.s:632    .text:000001ce UART_RxChar
C:\Users\aleks\AppData\Local\Temp/ccQq8hXr.s:650    .text:000001d6 Chose_Channel
                            *COM*:00000001 count1
                            *COM*:00000001 count2
                            *COM*:00000001 count3
C:\Users\aleks\AppData\Local\Temp/ccQq8hXr.s:754    .text:00000248 change_byte
C:\Users\aleks\AppData\Local\Temp/ccQq8hXr.s:769    .text:0000024c UART_SendString
C:\Users\aleks\AppData\Local\Temp/ccQq8hXr.s:815    .text:00000262 FirstDeviceEnable
C:\Users\aleks\AppData\Local\Temp/ccQq8hXr.s:829    .text:00000266 SecondDeviceEnable
C:\Users\aleks\AppData\Local\Temp/ccQq8hXr.s:843    .text:0000026a FirstDeviceDisable
C:\Users\aleks\AppData\Local\Temp/ccQq8hXr.s:857    .text:0000026e SecondDeviceDisable
C:\Users\aleks\AppData\Local\Temp/ccQq8hXr.s:871    .text:00000272 SendFirstData
                            *COM*:00000001 count2_s
                            *COM*:00000001 count3_s
C:\Users\aleks\AppData\Local\Temp/ccQq8hXr.s:1868   .bss:00000000 sum_first_device
C:\Users\aleks\AppData\Local\Temp/ccQq8hXr.s:1038   .text:00000304 SendSecondData
C:\Users\aleks\AppData\Local\Temp/ccQq8hXr.s:1874   .bss:00000002 sum_second_device
C:\Users\aleks\AppData\Local\Temp/ccQq8hXr.s:1205   .text:00000396 askLevel
C:\Users\aleks\AppData\Local\Temp/ccQq8hXr.s:1339   .text:0000040e lcd_option
                            *COM*:00000002 buffer1
C:\Users\aleks\AppData\Local\Temp/ccQq8hXr.s:1469   .text:000004dc main
C:\Users\aleks\AppData\Local\Temp/ccQq8hXr.s:1899   .bss:00000006 c
                            *COM*:00000001 count1_s
                            *COM*:00000001 channel2

UNDEFINED SYMBOLS
sprintf
__do_copy_data
__do_clear_bss
